# SymbolsHelper-Confirmed: 4:6.4.91 amd64
libklookandfeel.so.6 libklookandfeel6 #MINVER#
* Build-Depends-Package: plasma-workspace-dev
 (optional=templinst)_ZN12KConfigGroup10writeEntryI6QColorEEvPKcRKT_6QFlagsIN11KConfigBase15WriteConfigFlagEE@Base 4:6.4.91
 _ZN12KLookAndFeel16staticMetaObjectE@Base 4:6.4.91
 _ZN12KLookAndFeel18colorSchemeVariantERKN8KPackage7PackageE@Base 4:6.4.91
 _ZN12KLookAndFeel19colorSchemeFilePathERKN8KPackage7PackageE@Base 4:6.4.91
 _ZN19KLookAndFeelManager11qt_metacallEN11QMetaObject4CallEiPPv@Base 4:6.4.91
 _ZN19KLookAndFeelManager11qt_metacastEPKc@Base 4:6.4.91
 _ZN19KLookAndFeelManager11setMenuFontERK7QString@Base 4:6.4.91
 _ZN19KLookAndFeelManager12fontsChangedEv@Base 4:6.4.91
 _ZN19KLookAndFeelManager12iconsChangedEv@Base 4:6.4.91
 _ZN19KLookAndFeelManager12setFixedFontERK7QString@Base 4:6.4.91
 _ZN19KLookAndFeelManager12styleChangedERK7QString@Base 4:6.4.91
 _ZN19KLookAndFeelManager13colorsChangedEv@Base 4:6.4.91
 _ZN19KLookAndFeelManager13setBorderSizeERK7QString@Base 4:6.4.91
 _ZN19KLookAndFeelManager14configDefaultsERK7QString@Base 4:6.4.91
 _ZN19KLookAndFeelManager14cursorsChangedERK7QString@Base 4:6.4.91
 _ZN19KLookAndFeelManager14setCursorThemeE7QString@Base 4:6.4.91
 _ZN19KLookAndFeelManager14setGeneralFontERK7QString@Base 4:6.4.91
 _ZN19KLookAndFeelManager14setLatteLayoutERK7QStringS2_@Base 4:6.4.91
 _ZN19KLookAndFeelManager14setPlasmaThemeERK7QString@Base 4:6.4.91
 _ZN19KLookAndFeelManager14setToolbarFontERK7QString@Base 4:6.4.91
 _ZN19KLookAndFeelManager14setWidgetStyleERK7QString@Base 4:6.4.91
 _ZN19KLookAndFeelManager15setShellPackageERK7QString@Base 4:6.4.91
 _ZN19KLookAndFeelManager15setSplashScreenERK7QString@Base 4:6.4.91
 _ZN19KLookAndFeelManager16staticMetaObjectE@Base 4:6.4.91
 _ZN19KLookAndFeelManager16writeNewDefaultsER12KConfigGroupS1_RK7QStringS4_6QFlagsIN11KConfigBase15WriteConfigFlagEE@Base 4:6.4.91
 _ZN19KLookAndFeelManager16writeNewDefaultsER7KConfigS1_RK7QStringS4_S4_6QFlagsIN11KConfigBase15WriteConfigFlagEE@Base 4:6.4.91
 _ZN19KLookAndFeelManager16writeNewDefaultsERK7QStringS2_S2_S2_6QFlagsIN11KConfigBase15WriteConfigFlagEE@Base 4:6.4.91
 _ZN19KLookAndFeelManager17setTitlebarLayoutERK7QStringS2_@Base 4:6.4.91
 _ZN19KLookAndFeelManager17setWindowSwitcherERK7QString@Base 4:6.4.91
 _ZN19KLookAndFeelManager18setWindowPlacementERK7QString@Base 4:6.4.91
 _ZN19KLookAndFeelManager18setWindowTitleFontERK7QString@Base 4:6.4.91
 _ZN19KLookAndFeelManager19plasmaLockedChangedEb@Base 4:6.4.91
 _ZN19KLookAndFeelManager19setWindowDecorationERK7QStringS2_b@Base 4:6.4.91
 _ZN19KLookAndFeelManager22setBorderlessMaximizedERK7QString@Base 4:6.4.91
 _ZN19KLookAndFeelManager23setSmallestReadableFontERK7QString@Base 4:6.4.91
 _ZN19KLookAndFeelManager4saveERKN8KPackage7PackageE6QFlagsINS_12ContentFlagsEE@Base 4:6.4.91
 _ZN19KLookAndFeelManager6removeERKN8KPackage7PackageE6QFlagsINS_12ContentFlagsEE@Base 4:6.4.91
 _ZN19KLookAndFeelManager7messageEv@Base 4:6.4.91
 _ZN19KLookAndFeelManager7setModeENS_4ModeE@Base 4:6.4.91
 _ZN19KLookAndFeelManager8setIconsERK7QString@Base 4:6.4.91
 _ZN19KLookAndFeelManager9setColorsERK7QStringS2_@Base 4:6.4.91
 _ZN19KLookAndFeelManagerC1EP7QObject@Base 4:6.4.91
 _ZN19KLookAndFeelManagerC2EP7QObject@Base 4:6.4.91
 (optional=templinst)_ZNK12KConfigGroup9readEntryI6QColorEET_PKcRKS2_@Base 4:6.4.91
 (optional=templinst)_ZNK12KConfigGroup9readEntryIbEET_PKcRKS1_@Base 4:6.4.91
 (optional=templinst)_ZNK12KConfigGroup9readEntryIdEET_PKcRKS1_@Base 4:6.4.91
 (optional=templinst)_ZNK12KConfigGroup9readEntryIiEET_PKcRKS1_@Base 4:6.4.91
 _ZNK19KLookAndFeelManager10metaObjectEv@Base 4:6.4.91
 _ZNK19KLookAndFeelManager14isPlasmaLockedEv@Base 4:6.4.91
 _ZNK19KLookAndFeelManager15colorSchemeFileERK7QString@Base 4:6.4.91
 _ZNK19KLookAndFeelManager15packageContentsERKN8KPackage7PackageE@Base 4:6.4.91
 _ZTI19KLookAndFeelManager@Base 4:6.4.91
 _ZTS19KLookAndFeelManager@Base 4:6.4.91
 _ZTV19KLookAndFeelManager@Base 4:6.4.91
